	.text
	.syntax unified
	.eabi_attribute	67, "2.09"	@ Tag_conformance
	.cpu	cortex-m33
	.eabi_attribute	6, 17	@ Tag_CPU_arch
	.eabi_attribute	7, 77	@ Tag_CPU_arch_profile
	.eabi_attribute	8, 0	@ Tag_ARM_ISA_use
	.eabi_attribute	9, 3	@ Tag_THUMB_ISA_use
	.fpu	fpv5-sp-d16
	.eabi_attribute	27, 1	@ Tag_ABI_HardFP_use
	.eabi_attribute	36, 1	@ Tag_FP_HP_extension
	.eabi_attribute	46, 1	@ Tag_DSP_extension
	.eabi_attribute	34, 1	@ Tag_CPU_unaligned_access
	.eabi_attribute	17, 1	@ Tag_ABI_PCS_GOT_use
	.eabi_attribute	20, 2	@ Tag_ABI_FP_denormal
	.eabi_attribute	21, 0	@ Tag_ABI_FP_exceptions
	.eabi_attribute	23, 1	@ Tag_ABI_FP_number_model
	.eabi_attribute	24, 1	@ Tag_ABI_align_needed
	.eabi_attribute	25, 1	@ Tag_ABI_align_preserved
	.eabi_attribute	28, 1	@ Tag_ABI_VFP_args
	.eabi_attribute	38, 1	@ Tag_ABI_FP_16bit_format
	.eabi_attribute	18, 2	@ Tag_ABI_PCS_wchar_t
	.eabi_attribute	26, 1	@ Tag_ABI_enum_size
	.eabi_attribute	14, 0	@ Tag_ABI_PCS_R9_use
	.file	"PollQ.c"
	.file	1 "D:\\Workspace\\Git\\AisinoChip\\FreeRTOSv10.1.1\\FreeRTOS\\Demo\\CORTEX_M33_ACM32G103_Keil_GCC_IAR\\KEIL" "../../../Source/include\\queue.h"
	.file	2 "D:\\Workspace\\Git\\AisinoChip\\FreeRTOSv10.1.1\\FreeRTOS\\Demo\\CORTEX_M33_ACM32G103_Keil_GCC_IAR\\KEIL" "../../Common/Minimal/PollQ.c"
	.file	3 "D:\\Workspace\\Git\\AisinoChip\\FreeRTOSv10.1.1\\FreeRTOS\\Demo\\CORTEX_M33_ACM32G103_Keil_GCC_IAR\\KEIL" "../../../Source/portable/GCC/ARM_CM4F\\portmacro.h"
	.file	4 "C:\\Keil_v5\\ARM\\ARMCLANG\\Bin\\..\\include" "stdint.h"
	.file	5 "D:\\Workspace\\Git\\AisinoChip\\FreeRTOSv10.1.1\\FreeRTOS\\Demo\\CORTEX_M33_ACM32G103_Keil_GCC_IAR\\KEIL" "../../../Source/include/task.h"
	.section	.text.vStartPolledQueueTasks,"ax",%progbits
	.hidden	vStartPolledQueueTasks          @ -- Begin function vStartPolledQueueTasks
	.globl	vStartPolledQueueTasks
	.p2align	2
	.type	vStartPolledQueueTasks,%function
	.code	16                              @ @vStartPolledQueueTasks
	.thumb_func
vStartPolledQueueTasks:
.Lfunc_begin0:
	.loc	2 89 0                          @ ../../Common/Minimal/PollQ.c:89:0
	.fnstart
	.cfi_sections .debug_frame
	.cfi_startproc
@ %bb.0:
	@DEBUG_VALUE: vStartPolledQueueTasks:uxPriority <- $r0
	.save	{r4, r5, r6, lr}
	push	{r4, r5, r6, lr}
	.cfi_def_cfa_offset 16
	.cfi_offset lr, -4
	.cfi_offset r6, -8
	.cfi_offset r5, -12
	.cfi_offset r4, -16
	.pad	#8
	sub	sp, #8
	.cfi_def_cfa_offset 24
	mov	r4, r0
.Ltmp0:
	@DEBUG_VALUE: vStartPolledQueueTasks:uxPriority <- $r4
	@DEBUG_VALUE: vStartPolledQueueTasks:uxPriority <- $r4
	.loc	2 93 17 prologue_end            @ ../../Common/Minimal/PollQ.c:93:17
	movs	r0, #10
	movs	r1, #2
	movs	r2, #0
	movs	r6, #0
	bl	xQueueGenericCreate
	.loc	2 93 15 is_stmt 0               @ ../../Common/Minimal/PollQ.c:93:15
	movw	r1, :lower16:vStartPolledQueueTasks.xPolledQueue
	movt	r1, :upper16:vStartPolledQueueTasks.xPolledQueue
	str	r0, [r1]
	.loc	2 95 6 is_stmt 1                @ ../../Common/Minimal/PollQ.c:95:6
	cbz	r0, .LBB0_2
.Ltmp1:
@ %bb.1:
	@DEBUG_VALUE: vStartPolledQueueTasks:uxPriority <- $r4
	.loc	2 106 3                         @ ../../Common/Minimal/PollQ.c:106:3
	movw	r5, :lower16:vStartPolledQueueTasks.xPolledQueue
	movw	r0, :lower16:vPolledQueueConsumer
	movt	r5, :upper16:vStartPolledQueueTasks.xPolledQueue
	movt	r0, :upper16:vPolledQueueConsumer
	adr	r1, .LCPI0_0
	movs	r2, #64
	mov	r3, r5
	str	r4, [sp]
	str	r6, [sp, #4]
	bl	xTaskCreate
	.loc	2 107 3                         @ ../../Common/Minimal/PollQ.c:107:3
	movw	r0, :lower16:vPolledQueueProducer
	movt	r0, :upper16:vPolledQueueProducer
	adr	r1, .LCPI0_1
	movs	r2, #64
	mov	r3, r5
	str	r4, [sp]
	str	r6, [sp, #4]
	bl	xTaskCreate
.Ltmp2:
.LBB0_2:
	@DEBUG_VALUE: vStartPolledQueueTasks:uxPriority <- $r4
	.loc	2 109 1                         @ ../../Common/Minimal/PollQ.c:109:1
	add	sp, #8
	pop	{r4, r5, r6, pc}
.Ltmp3:
	.p2align	2
@ %bb.3:
	.loc	2 0 1 is_stmt 0                 @ ../../Common/Minimal/PollQ.c:0:1
.LCPI0_0:
.L.str:
	.asciz	"QConsNB"
.LCPI0_1:
.L.str.1:
	.asciz	"QProdNB"
.Lfunc_end0:
	.size	vStartPolledQueueTasks, .Lfunc_end0-vStartPolledQueueTasks
	.cfi_endproc
	.cantunwind
	.fnend
                                        @ -- End function
	.section	.text.vPolledQueueConsumer,"ax",%progbits
	.p2align	2                               @ -- Begin function vPolledQueueConsumer
	.type	vPolledQueueConsumer,%function
	.code	16                              @ @vPolledQueueConsumer
	.thumb_func
vPolledQueueConsumer:
.Lfunc_begin1:
	.loc	2 152 0 is_stmt 1               @ ../../Common/Minimal/PollQ.c:152:0
	.fnstart
	.cfi_startproc
@ %bb.0:
	@DEBUG_VALUE: vPolledQueueConsumer:pvParameters <- $r0
	.pad	#8
	sub	sp, #8
	.cfi_def_cfa_offset 8
	movw	r8, :lower16:xPollingConsumerCount
	mov	r4, r0
.Ltmp4:
	@DEBUG_VALUE: vPolledQueueConsumer:pvParameters <- $r4
	movs	r7, #0
	add.w	r5, sp, #6
	movt	r8, :upper16:xPollingConsumerCount
.Ltmp5:
	@DEBUG_VALUE: vPolledQueueConsumer:xError <- 0
	@DEBUG_VALUE: vPolledQueueConsumer:usExpectedValue <- 0
	@DEBUG_VALUE: vPolledQueueConsumer:pvParameters <- $r4
	.loc	2 154 12 prologue_end           @ ../../Common/Minimal/PollQ.c:154:12
	movs	r6, #0
	b	.LBB1_2
.Ltmp6:
	.p2align	2
.LBB1_1:                                @   in Loop: Header=BB1_2 Depth=1
	@DEBUG_VALUE: vPolledQueueConsumer:usExpectedValue <- $r7
	@DEBUG_VALUE: vPolledQueueConsumer:xError <- $r6
	@DEBUG_VALUE: vPolledQueueConsumer:pvParameters <- $r4
	@DEBUG_VALUE: vPolledQueueConsumer:usData <- $r0
	.loc	2 0 0 is_stmt 0                 @ ../../Common/Minimal/PollQ.c:0:0
	mov	r7, r0
.Ltmp7:
	@DEBUG_VALUE: vPolledQueueConsumer:usExpectedValue <- $r7
	@DEBUG_VALUE: vPolledQueueConsumer:xError <- $r6
	movs	r6, #1
.Ltmp8:
	.loc	2 186 20 is_stmt 1              @ ../../Common/Minimal/PollQ.c:186:20
	adds	r7, r0, #1
.Ltmp9:
.LBB1_2:                                @ =>This Inner Loop Header: Depth=1
	@DEBUG_VALUE: vPolledQueueConsumer:pvParameters <- $r4
	@DEBUG_VALUE: vPolledQueueConsumer:usExpectedValue <- $r7
	@DEBUG_VALUE: vPolledQueueConsumer:xError <- $r6
	.loc	2 159 34                        @ ../../Common/Minimal/PollQ.c:159:34
	ldr	r0, [r4]
	.loc	2 159 10 is_stmt 0              @ ../../Common/Minimal/PollQ.c:159:10
	bl	uxQueueMessagesWaiting
	.loc	2 159 3                         @ ../../Common/Minimal/PollQ.c:159:3
	cbz	r0, .LBB1_8
.Ltmp10:
@ %bb.3:                                @   in Loop: Header=BB1_2 Depth=1
	@DEBUG_VALUE: vPolledQueueConsumer:usExpectedValue <- $r7
	@DEBUG_VALUE: vPolledQueueConsumer:xError <- $r6
	@DEBUG_VALUE: vPolledQueueConsumer:pvParameters <- $r4
	@DEBUG_VALUE: vPolledQueueConsumer:usExpectedValue <- $r7
	@DEBUG_VALUE: vPolledQueueConsumer:xError <- $r6
	.loc	2 161 23 is_stmt 1              @ ../../Common/Minimal/PollQ.c:161:23
	ldr	r0, [r4]
.Ltmp11:
	@DEBUG_VALUE: vPolledQueueConsumer:usData <- [DW_OP_plus_uconst 6, DW_OP_deref] $sp
	.loc	2 161 8 is_stmt 0               @ ../../Common/Minimal/PollQ.c:161:8
	mov	r1, r5
	movs	r2, #0
	bl	xQueueReceive
.Ltmp12:
	.loc	2 161 8                         @ ../../Common/Minimal/PollQ.c:161:8
	cmp	r0, #1
	bne	.LBB1_2
.Ltmp13:
@ %bb.4:                                @   in Loop: Header=BB1_2 Depth=1
	@DEBUG_VALUE: vPolledQueueConsumer:usExpectedValue <- $r7
	@DEBUG_VALUE: vPolledQueueConsumer:xError <- $r6
	@DEBUG_VALUE: vPolledQueueConsumer:pvParameters <- $r4
	@DEBUG_VALUE: vPolledQueueConsumer:usData <- [DW_OP_plus_uconst 6, DW_OP_deref] $sp
	.loc	2 163 9 is_stmt 1               @ ../../Common/Minimal/PollQ.c:163:9
	ldrh.w	r0, [sp, #6]
.Ltmp14:
	@DEBUG_VALUE: vPolledQueueConsumer:usData <- $r0
	.loc	2 163 16 is_stmt 0              @ ../../Common/Minimal/PollQ.c:163:16
	uxth	r1, r7
.Ltmp15:
	.loc	2 163 9                         @ ../../Common/Minimal/PollQ.c:163:9
	cmp	r0, r1
	bne	.LBB1_1
.Ltmp16:
@ %bb.5:                                @   in Loop: Header=BB1_2 Depth=1
	@DEBUG_VALUE: vPolledQueueConsumer:usExpectedValue <- $r7
	@DEBUG_VALUE: vPolledQueueConsumer:xError <- $r6
	@DEBUG_VALUE: vPolledQueueConsumer:pvParameters <- $r4
	@DEBUG_VALUE: vPolledQueueConsumer:usData <- $r0
	.loc	2 175 10 is_stmt 1              @ ../../Common/Minimal/PollQ.c:175:10
	cbz	r6, .LBB1_7
.Ltmp17:
@ %bb.6:                                @   in Loop: Header=BB1_2 Depth=1
	@DEBUG_VALUE: vPolledQueueConsumer:usExpectedValue <- $r7
	@DEBUG_VALUE: vPolledQueueConsumer:xError <- $r6
	@DEBUG_VALUE: vPolledQueueConsumer:pvParameters <- $r4
	@DEBUG_VALUE: vPolledQueueConsumer:usData <- $r0
	.loc	2 0 10 is_stmt 0                @ ../../Common/Minimal/PollQ.c:0:10
	movs	r6, #1
.Ltmp18:
	@DEBUG_VALUE: vPolledQueueConsumer:usExpectedValue <- $r7
	@DEBUG_VALUE: vPolledQueueConsumer:xError <- $r6
	.loc	2 186 20 is_stmt 1              @ ../../Common/Minimal/PollQ.c:186:20
	adds	r7, #1
.Ltmp19:
	.loc	2 0 20 is_stmt 0                @ ../../Common/Minimal/PollQ.c:0:20
	b	.LBB1_2
.Ltmp20:
.LBB1_7:                                @   in Loop: Header=BB1_2 Depth=1
	@DEBUG_VALUE: vPolledQueueConsumer:usExpectedValue <- $r7
	@DEBUG_VALUE: vPolledQueueConsumer:xError <- $r6
	@DEBUG_VALUE: vPolledQueueConsumer:pvParameters <- $r4
	@DEBUG_VALUE: vPolledQueueConsumer:usData <- $r0
	.loc	2 179 7 is_stmt 1               @ ../../Common/Minimal/PollQ.c:179:7
	bl	vPortEnterCritical
.Ltmp21:
	.loc	2 180 29                        @ ../../Common/Minimal/PollQ.c:180:29
	ldr.w	r0, [r8]
	adds	r0, #1
	str.w	r0, [r8]
	.loc	2 181 7                         @ ../../Common/Minimal/PollQ.c:181:7
	bl	vPortExitCritical
	movs	r6, #0
.Ltmp22:
	@DEBUG_VALUE: vPolledQueueConsumer:usExpectedValue <- $r7
	@DEBUG_VALUE: vPolledQueueConsumer:xError <- $r6
	.loc	2 186 20                        @ ../../Common/Minimal/PollQ.c:186:20
	adds	r7, #1
.Ltmp23:
	.loc	2 0 20 is_stmt 0                @ ../../Common/Minimal/PollQ.c:0:20
	b	.LBB1_2
.Ltmp24:
.LBB1_8:                                @   in Loop: Header=BB1_2 Depth=1
	@DEBUG_VALUE: vPolledQueueConsumer:usExpectedValue <- $r7
	@DEBUG_VALUE: vPolledQueueConsumer:xError <- $r6
	@DEBUG_VALUE: vPolledQueueConsumer:pvParameters <- $r4
	@DEBUG_VALUE: vPolledQueueConsumer:usExpectedValue <- $r7
	@DEBUG_VALUE: vPolledQueueConsumer:xError <- $r6
	.loc	2 192 3 is_stmt 1               @ ../../Common/Minimal/PollQ.c:192:3
	movs	r0, #180
	bl	vTaskDelay
	b	.LBB1_2
.Ltmp25:
.Lfunc_end1:
	.size	vPolledQueueConsumer, .Lfunc_end1-vPolledQueueConsumer
	.cfi_endproc
	.cantunwind
	.fnend
                                        @ -- End function
	.section	.text.vPolledQueueProducer,"ax",%progbits
	.p2align	2                               @ -- Begin function vPolledQueueProducer
	.type	vPolledQueueProducer,%function
	.code	16                              @ @vPolledQueueProducer
	.thumb_func
vPolledQueueProducer:
.Lfunc_begin2:
	.loc	2 113 0                         @ ../../Common/Minimal/PollQ.c:113:0
	.fnstart
	.cfi_startproc
@ %bb.0:
	@DEBUG_VALUE: vPolledQueueProducer:pvParameters <- $r0
	.pad	#8
	sub	sp, #8
	.cfi_def_cfa_offset 8
	movw	r8, :lower16:xPollingProducerCount
	mov	r4, r0
.Ltmp26:
	@DEBUG_VALUE: vPolledQueueProducer:pvParameters <- $r4
	movs	r7, #0
.Ltmp27:
	@DEBUG_VALUE: vPolledQueueProducer:usValue <- 0
	@DEBUG_VALUE: vPolledQueueProducer:pvParameters <- $r4
	add.w	r5, sp, #6
	movt	r8, :upper16:xPollingProducerCount
	movs	r6, #0
.Ltmp28:
	.loc	2 114 10 prologue_end           @ ../../Common/Minimal/PollQ.c:114:10
	strh.w	r7, [sp, #6]
.Ltmp29:
	@DEBUG_VALUE: vPolledQueueProducer:xError <- 0
	.p2align	2
.LBB2_1:                                @ =>This Inner Loop Header: Depth=1
	@DEBUG_VALUE: vPolledQueueProducer:pvParameters <- $r4
	@DEBUG_VALUE: vPolledQueueProducer:xError <- $r6
	@DEBUG_VALUE: vPolledQueueProducer:xLoop <- $r7
	.loc	2 122 8                         @ ../../Common/Minimal/PollQ.c:122:8
	ldr	r0, [r4]
.Ltmp30:
	@DEBUG_VALUE: vPolledQueueProducer:usValue <- [DW_OP_plus_uconst 6, DW_OP_deref] $sp
	mov	r1, r5
	movs	r2, #0
	movs	r3, #0
	bl	xQueueGenericSend
.Ltmp31:
	.loc	2 122 8 is_stmt 0               @ ../../Common/Minimal/PollQ.c:122:8
	cmp	r0, #1
	bne	.LBB2_5
.Ltmp32:
@ %bb.2:                                @   in Loop: Header=BB2_1 Depth=1
	@DEBUG_VALUE: vPolledQueueProducer:xLoop <- $r7
	@DEBUG_VALUE: vPolledQueueProducer:xError <- $r6
	@DEBUG_VALUE: vPolledQueueProducer:pvParameters <- $r4
	@DEBUG_VALUE: vPolledQueueProducer:usValue <- [DW_OP_plus_uconst 6, DW_OP_deref] $sp
	.loc	2 130 9 is_stmt 1               @ ../../Common/Minimal/PollQ.c:130:9
	cbnz	r6, .LBB2_4
.Ltmp33:
@ %bb.3:                                @   in Loop: Header=BB2_1 Depth=1
	@DEBUG_VALUE: vPolledQueueProducer:xLoop <- $r7
	@DEBUG_VALUE: vPolledQueueProducer:xError <- $r6
	@DEBUG_VALUE: vPolledQueueProducer:pvParameters <- $r4
	@DEBUG_VALUE: vPolledQueueProducer:usValue <- [DW_OP_plus_uconst 6, DW_OP_deref] $sp
	.loc	2 134 6                         @ ../../Common/Minimal/PollQ.c:134:6
	bl	vPortEnterCritical
	.loc	2 135 28                        @ ../../Common/Minimal/PollQ.c:135:28
	ldr.w	r0, [r8]
	adds	r0, #1
	str.w	r0, [r8]
	.loc	2 136 6                         @ ../../Common/Minimal/PollQ.c:136:6
	bl	vPortExitCritical
.Ltmp34:
.LBB2_4:                                @   in Loop: Header=BB2_1 Depth=1
	@DEBUG_VALUE: vPolledQueueProducer:xLoop <- $r7
	@DEBUG_VALUE: vPolledQueueProducer:xError <- $r6
	@DEBUG_VALUE: vPolledQueueProducer:pvParameters <- $r4
	@DEBUG_VALUE: vPolledQueueProducer:usValue <- [DW_OP_plus_uconst 6, DW_OP_deref] $sp
	.loc	2 140 12                        @ ../../Common/Minimal/PollQ.c:140:12
	ldrh.w	r0, [sp, #6]
.Ltmp35:
	@DEBUG_VALUE: vPolledQueueProducer:usValue <- $r0
	adds	r0, #1
.Ltmp36:
	@DEBUG_VALUE: vPolledQueueProducer:usValue <- $r0
	strh.w	r0, [sp, #6]
	b	.LBB2_6
.Ltmp37:
	.p2align	2
.LBB2_5:                                @   in Loop: Header=BB2_1 Depth=1
	@DEBUG_VALUE: vPolledQueueProducer:xLoop <- $r7
	@DEBUG_VALUE: vPolledQueueProducer:xError <- $r6
	@DEBUG_VALUE: vPolledQueueProducer:pvParameters <- $r4
	@DEBUG_VALUE: vPolledQueueProducer:usValue <- [DW_OP_plus_uconst 6, DW_OP_deref] $sp
	.loc	2 0 12 is_stmt 0                @ ../../Common/Minimal/PollQ.c:0:12
	movs	r6, #1
.Ltmp38:
.LBB2_6:                                @   in Loop: Header=BB2_1 Depth=1
	@DEBUG_VALUE: vPolledQueueProducer:xLoop <- $r7
	@DEBUG_VALUE: vPolledQueueProducer:pvParameters <- $r4
	@DEBUG_VALUE: vPolledQueueProducer:xError <- $r6
	.loc	2 119 56 is_stmt 1              @ ../../Common/Minimal/PollQ.c:119:56
	adds	r7, #1
.Ltmp39:
	@DEBUG_VALUE: vPolledQueueProducer:xLoop <- $r7
	.loc	2 119 3 is_stmt 0               @ ../../Common/Minimal/PollQ.c:119:3
	cmp	r7, #3
	bne	.LBB2_1
.Ltmp40:
@ %bb.7:                                @   in Loop: Header=BB2_1 Depth=1
	@DEBUG_VALUE: vPolledQueueProducer:xLoop <- $r7
	@DEBUG_VALUE: vPolledQueueProducer:xError <- $r6
	@DEBUG_VALUE: vPolledQueueProducer:pvParameters <- $r4
	@DEBUG_VALUE: vPolledQueueProducer:xError <- $r6
	.loc	2 146 3 is_stmt 1               @ ../../Common/Minimal/PollQ.c:146:3
	movs	r0, #200
	bl	vTaskDelay
	movs	r7, #0
.Ltmp41:
	.loc	2 0 3 is_stmt 0                 @ ../../Common/Minimal/PollQ.c:0:3
	b	.LBB2_1
.Ltmp42:
.Lfunc_end2:
	.size	vPolledQueueProducer, .Lfunc_end2-vPolledQueueProducer
	.cfi_endproc
	.cantunwind
	.fnend
                                        @ -- End function
	.section	.text.xArePollingQueuesStillRunning,"ax",%progbits
	.hidden	xArePollingQueuesStillRunning   @ -- Begin function xArePollingQueuesStillRunning
	.globl	xArePollingQueuesStillRunning
	.p2align	2
	.type	xArePollingQueuesStillRunning,%function
	.code	16                              @ @xArePollingQueuesStillRunning
	.thumb_func
xArePollingQueuesStillRunning:
.Lfunc_begin3:
	.loc	2 199 0 is_stmt 1               @ ../../Common/Minimal/PollQ.c:199:0
	.fnstart
	.cfi_startproc
@ %bb.0:
	.loc	2 206 8 prologue_end            @ ../../Common/Minimal/PollQ.c:206:8
	movw	r1, :lower16:xPollingConsumerCount
	movt	r1, :upper16:xPollingConsumerCount
	ldr	r0, [r1]
	movw	r3, :lower16:xPollingProducerCount
	mov.w	r2, #0
	movt	r3, :upper16:xPollingProducerCount
	.loc	2 206 54 is_stmt 0              @ ../../Common/Minimal/PollQ.c:206:54
	cbz	r0, .LBB3_2
@ %bb.1:
	.loc	2 207 5 is_stmt 1               @ ../../Common/Minimal/PollQ.c:207:5
	ldr	r0, [r3]
	.loc	2 207 27 is_stmt 0              @ ../../Common/Minimal/PollQ.c:207:27
	cmp	r0, #0
	it	ne
	movne	r0, #1
	b	.LBB3_3
.LBB3_2:
	.loc	2 0 0                           @ ../../Common/Minimal/PollQ.c:0:0
	movs	r0, #0
.Ltmp43:
.LBB3_3:
	@DEBUG_VALUE: xArePollingQueuesStillRunning:xReturn <- $r0
	.loc	2 219 24 is_stmt 1              @ ../../Common/Minimal/PollQ.c:219:24
	str	r2, [r1]
	.loc	2 220 24                        @ ../../Common/Minimal/PollQ.c:220:24
	str	r2, [r3]
	.loc	2 222 2                         @ ../../Common/Minimal/PollQ.c:222:2
	bx	lr
.Ltmp44:
.Lfunc_end3:
	.size	xArePollingQueuesStillRunning, .Lfunc_end3-xArePollingQueuesStillRunning
	.cfi_endproc
	.cantunwind
	.fnend
                                        @ -- End function
	.type	vStartPolledQueueTasks.xPolledQueue,%object @ @vStartPolledQueueTasks.xPolledQueue
	.section	.bss.vStartPolledQueueTasks.xPolledQueue,"aw",%nobits
	.p2align	2
vStartPolledQueueTasks.xPolledQueue:
	.long	0
	.size	vStartPolledQueueTasks.xPolledQueue, 4

	.type	xPollingConsumerCount,%object   @ @xPollingConsumerCount
	.section	.bss.xPollingConsumerCount,"aw",%nobits
	.p2align	2
xPollingConsumerCount:
	.long	0                               @ 0x0
	.size	xPollingConsumerCount, 4

	.type	xPollingProducerCount,%object   @ @xPollingProducerCount
	.section	.bss.xPollingProducerCount,"aw",%nobits
	.p2align	2
xPollingProducerCount:
	.long	0                               @ 0x0
	.size	xPollingProducerCount, 4

	.section	".note.GNU-stack","",%progbits
	.eabi_attribute	30, 1	@ Tag_ABI_optimization_goals
	.ARM_attribute	16, 1	@ Tag_AV_eba